; Function Attrs: mustprogress uwtable
define void @_ZNK6icu_759RuleChain6selectERKNS_13IFixedDecimalE(ptr noalias sret(%"class.icu_75::UnicodeString") align 8 %agg.result, ptr noundef nonnull align 8 dereferenceable(224) %this, ptr noundef nonnull align 8 dereferenceable(8) %number) local_unnamed_addr #1 align 2 personality ptr @__gxx_personality_v0 {
entry:
  %agg.tmp = alloca %"class.icu_75::ConstChar16Ptr", align 8
  %vtable = load ptr, ptr %number, align 8
  %vfn = getelementptr inbounds i8, ptr %vtable, i64 24
  %0 = load ptr, ptr %vfn, align 8
  %call = tail call noundef zeroext i1 %0(ptr noundef nonnull align 8 dereferenceable(8) %number)
  br i1 %call, label %if.end7, label %land.lhs.true

land.lhs.true:                                    ; preds = %entry
  %vtable2 = load ptr, ptr %number, align 8
  %vfn3 = getelementptr inbounds i8, ptr %vtable2, i64 32
  %1 = load ptr, ptr %vfn3, align 8
  %call4 = tail call noundef zeroext i1 %1(ptr noundef nonnull align 8 dereferenceable(8) %number)
  br i1 %call4, label %if.end7, label %for.body

for.body:                                         ; preds = %land.lhs.true, %for.inc
  %rules.07 = phi ptr [ %3, %for.inc ], [ %this, %land.lhs.true ]
  %ruleHeader = getelementptr inbounds i8, ptr %rules.07, i64 80
  %2 = load ptr, ptr %ruleHeader, align 8
  %call5 = tail call noundef signext i8 @_ZN6icu_7512OrConstraint11isFulfilledERKNS_13IFixedDecimalE(ptr noundef nonnull align 8 dereferenceable(28) %2, ptr noundef nonnull align 8 dereferenceable(8) %number), !range !20
  %tobool.not = icmp eq i8 %call5, 0
  br i1 %tobool.not, label %for.inc, label %if.then6

if.then6:                                         ; preds = %for.body
  %fKeyword = getelementptr inbounds i8, ptr %rules.07, i64 8
  tail call void @_ZN6icu_7513UnicodeStringC1ERKS0_(ptr noundef nonnull align 8 dereferenceable(64) %agg.result, ptr noundef nonnull align 8 dereferenceable(64) %fKeyword)
  br label %return

for.inc:                                          ; preds = %for.body
  %fNext = getelementptr inbounds i8, ptr %rules.07, i64 72
  %3 = load ptr, ptr %fNext, align 8
  %cmp.not = icmp eq ptr %3, null
  br i1 %cmp.not, label %if.end7, label %for.body, !llvm.loop !21

if.end7:                                          ; preds = %for.inc, %land.lhs.true, %entry
  store ptr @_ZN6icu_75L20PLURAL_KEYWORD_OTHERE, ptr %agg.tmp, align 8
  invoke void @_ZN6icu_7513UnicodeStringC1EaNS_14ConstChar16PtrEi(ptr noundef nonnull align 8 dereferenceable(64) %agg.result, i8 noundef signext 1, ptr noundef nonnull %agg.tmp, i32 noundef 5)
          to label %invoke.cont unwind label %lpad

invoke.cont:                                      ; preds = %if.end7
  %4 = load ptr, ptr %agg.tmp, align 8
  call void asm sideeffect "", "rm,~{memory},~{dirflag},~{fpsr},~{flags}"(ptr %4) #25, !srcloc !7
  br label %return

lpad:                                             ; preds = %if.end7
  %5 = landingpad { ptr, i32 }
          cleanup
  %6 = load ptr, ptr %agg.tmp, align 8
  call void asm sideeffect "", "rm,~{memory},~{dirflag},~{fpsr},~{flags}"(ptr %6) #25, !srcloc !7
  resume { ptr, i32 } %5

return:                                           ; preds = %invoke.cont, %if.then6
  ret void
}